; Function Attrs: mustprogress nofree nosync nounwind willreturn memory(write, argmem: readwrite, inaccessiblemem: none) uwtable
define noundef range(i32 -1, 1) i32 @_ZN3zmq33do_setsockopt_int_as_bool_relaxedEPKvmPb(ptr noundef readonly captures(none) %0, i64 noundef %1, ptr noundef writeonly captures(none) %2) local_unnamed_addr #1 {
  %4 = icmp eq i64 %1, 4
  br i1 %4, label %6, label %_ZL13do_setsockoptIiEiPKvmPT_.exit.thread

_ZL13do_setsockoptIiEiPKvmPT_.exit.thread:        ; preds = %3
  %5 = tail call ptr @__errno_location() #22
  store i32 22, ptr %5, align 4, !tbaa !12
  br label %10

6:                                                ; preds = %3
  %7 = load i32, ptr %0, align 1
  %8 = icmp ne i32 %7, 0
  %9 = zext i1 %8 to i8
  store i8 %9, ptr %2, align 1, !tbaa !15
  br label %10

10:                                               ; preds = %_ZL13do_setsockoptIiEiPKvmPT_.exit.thread, %6
  %.0 = phi i32 [ 0, %6 ], [ -1, %_ZL13do_setsockoptIiEiPKvmPT_.exit.thread ]
  ret i32 %.0
}